target datalayout = "e-m:e-p270:32:32-p271:32:32-p272:64:64-i64:64-i128:128-f80:128-n8:16:32:64-S128"
target triple = "x86_64-pc-linux-gnu"

%"class.std::__1::basic_string" = type { %"class.std::__1::__compressed_pair.5" }
%"class.std::__1::__compressed_pair.5" = type { %"struct.std::__1::__compressed_pair_elem.6" }
%"struct.std::__1::__compressed_pair_elem.6" = type { %"struct.std::__1::basic_string<char>::__rep" }
%"struct.std::__1::basic_string<char>::__rep" = type { %union.anon.7 }
%union.anon.7 = type { %"struct.std::__1::basic_string<char>::__long" }
%"struct.std::__1::basic_string<char>::__long" = type { %struct.anon.8, i64, ptr }
%struct.anon.8 = type { i64 }
%"class.mitsuba::FileStream" = type { %"class.mitsuba::Stream", i32, [4 x i8], %"class.mitsuba::filesystem::path", %"class.std::__1::unique_ptr" }
%"class.mitsuba::Stream" = type { %"class.mitsuba::Object.base", i32 }
%"class.mitsuba::Object.base" = type <{ ptr, %"struct.std::__1::atomic" }>
%"struct.std::__1::atomic" = type { %"struct.std::__1::__atomic_base" }
%"struct.std::__1::__atomic_base" = type { %"struct.std::__1::__atomic_base.0" }
%"struct.std::__1::__atomic_base.0" = type { %"struct.std::__1::__cxx_atomic_impl" }
%"struct.std::__1::__cxx_atomic_impl" = type { %"struct.std::__1::__cxx_atomic_base_impl" }
%"struct.std::__1::__cxx_atomic_base_impl" = type { i32 }
%"class.mitsuba::filesystem::path" = type <{ %"class.std::__1::vector", i8, [7 x i8] }>
%"class.std::__1::vector" = type { ptr, ptr, %"class.std::__1::__compressed_pair" }
%"class.std::__1::__compressed_pair" = type { %"struct.std::__1::__compressed_pair_elem" }
%"struct.std::__1::__compressed_pair_elem" = type { ptr }
%"class.std::__1::unique_ptr" = type { %"class.std::__1::__compressed_pair.2" }
%"class.std::__1::__compressed_pair.2" = type { %"struct.std::__1::__compressed_pair_elem.3" }
%"struct.std::__1::__compressed_pair_elem.3" = type { ptr }
%"class.std::__1::ios_base" = type { ptr, i32, i64, i64, i32, i32, ptr, ptr, ptr, ptr, i64, i64, ptr, i64, i64, ptr, i64, i64 }

@_ZN7mitsuba10FileStream7m_classE = global ptr null, align 8
@.str = private unnamed_addr constant [116 x i8] c"generated/home/dtcxzyw/WorkSpace/Projects/compilers/llvm-opt-benchmark/bench/mitsuba3/mitsuba3/src/core/fstream.cpp\00", align 1
@.str.4 = private unnamed_addr constant [56 x i8] c"\22%s\22: I/O error while attempting to write %zu bytes: %s\00", align 1

; Function Attrs: mustprogress nounwind uwtable
define linkonce_odr hidden noundef nonnull align 8 dereferenceable(8) ptr @_ZNKSt3__122__compressed_pair_elemIPNS_13basic_fstreamIcNS_11char_traitsIcEEEELi0ELb0EE5__getB8ne190000Ev(ptr noundef nonnull align 8 dereferenceable(8) %0) #4 comdat align 2 {
  %2 = alloca ptr, align 8
  store ptr %0, ptr %2, align 8
  %3 = load ptr, ptr %2, align 8
  %4 = getelementptr inbounds %"struct.std::__1::__compressed_pair_elem.3", ptr %3, i32 0, i32 0
  ret ptr %4
}

; Function Attrs: mustprogress nounwind uwtable
define linkonce_odr hidden noundef zeroext i1 @_ZNKSt3__18ios_base4goodB8ne190000Ev(ptr noundef nonnull align 8 dereferenceable(136) %0) #4 comdat align 2 {
  %2 = alloca ptr, align 8
  store ptr %0, ptr %2, align 8
  %3 = load ptr, ptr %2, align 8
  %4 = getelementptr inbounds %"class.std::__1::ios_base", ptr %3, i32 0, i32 4
  %5 = load i32, ptr %4, align 8
  %6 = icmp eq i32 %5, 0
  ret i1 %6
}

; Function Attrs: mustprogress nounwind uwtable
define linkonce_odr hidden noundef nonnull align 8 dereferenceable(8) ptr @_ZNKSt3__117__compressed_pairIPNS_13basic_fstreamIcNS_11char_traitsIcEEEENS_14default_deleteIS4_EEE5firstB8ne190000Ev(ptr noundef nonnull align 8 dereferenceable(8) %0) #4 comdat align 2 {
  %2 = alloca ptr, align 8
  store ptr %0, ptr %2, align 8
  %3 = load ptr, ptr %2, align 8
  %4 = call noundef nonnull align 8 dereferenceable(8) ptr @_ZNKSt3__122__compressed_pair_elemIPNS_13basic_fstreamIcNS_11char_traitsIcEEEELi0ELb0EE5__getB8ne190000Ev(ptr noundef nonnull align 8 dereferenceable(8) %3) #18
  ret ptr %4
}

; Function Attrs: mustprogress uwtable
define linkonce_odr hidden void @_ZNSt3__19basic_iosIcNS_11char_traitsIcEEE5clearB8ne190000Ej(ptr noundef nonnull align 8 dereferenceable(148) %0, i32 noundef %1) #0 comdat align 2 {
  %3 = alloca ptr, align 8
  %4 = alloca i32, align 4
  store ptr %0, ptr %3, align 8
  store i32 %1, ptr %4, align 4
  %5 = load ptr, ptr %3, align 8
  %6 = load i32, ptr %4, align 4
  call void @_ZNSt3__18ios_base5clearEj(ptr noundef nonnull align 8 dereferenceable(136) %5, i32 noundef %6)
  ret void
}

; Function Attrs: mustprogress uwtable
define linkonce_odr hidden noundef zeroext i1 @_ZNKSt3__19basic_iosIcNS_11char_traitsIcEEE4goodB8ne190000Ev(ptr noundef nonnull align 8 dereferenceable(148) %0) #0 comdat align 2 {
  %2 = alloca ptr, align 8
  store ptr %0, ptr %2, align 8
  %3 = load ptr, ptr %2, align 8
  %4 = call noundef zeroext i1 @_ZNKSt3__18ios_base4goodB8ne190000Ev(ptr noundef nonnull align 8 dereferenceable(136) %3)
  ret i1 %4
}

; Function Attrs: mustprogress nounwind uwtable
define linkonce_odr hidden noundef ptr @_ZNKSt3__110unique_ptrINS_13basic_fstreamIcNS_11char_traitsIcEEEENS_14default_deleteIS4_EEEptB8ne190000Ev(ptr noundef nonnull align 8 dereferenceable(8) %0) #4 comdat align 2 {
  %2 = alloca ptr, align 8
  store ptr %0, ptr %2, align 8
  %3 = load ptr, ptr %2, align 8
  %4 = getelementptr inbounds %"class.std::__1::unique_ptr", ptr %3, i32 0, i32 0
  %5 = call noundef nonnull align 8 dereferenceable(8) ptr @_ZNKSt3__117__compressed_pairIPNS_13basic_fstreamIcNS_11char_traitsIcEEEENS_14default_deleteIS4_EEE5firstB8ne190000Ev(ptr noundef nonnull align 8 dereferenceable(8) %4) #18
  %6 = load ptr, ptr %5, align 8
  ret ptr %6
}

; Function Attrs: mustprogress uwtable
define void @_ZN7mitsuba10FileStream5writeEPKvm(ptr noundef nonnull align 8 dereferenceable(64) %0, ptr noundef %1, i64 noundef %2) unnamed_addr #0 align 2 personality ptr @__gxx_personality_v0 {
  %4 = alloca ptr, align 8
  %5 = alloca ptr, align 8
  %6 = alloca i64, align 8
  %7 = alloca %"class.std::__1::basic_string", align 8
  %8 = alloca %"class.std::__1::basic_string", align 8
  %9 = alloca ptr, align 8
  %10 = alloca ptr, align 8
  %11 = alloca i32, align 4
  store ptr %0, ptr %4, align 8
  store ptr %1, ptr %5, align 8
  store i64 %2, ptr %6, align 8
  %12 = load ptr, ptr %4, align 8
  %13 = getelementptr inbounds %"class.mitsuba::FileStream", ptr %12, i32 0, i32 4
  %14 = call noundef ptr @_ZNKSt3__110unique_ptrINS_13basic_fstreamIcNS_11char_traitsIcEEEENS_14default_deleteIS4_EEEptB8ne190000Ev(ptr noundef nonnull align 8 dereferenceable(8) %13) #18
  %15 = getelementptr inbounds i8, ptr %14, i64 16
  %16 = load ptr, ptr %5, align 8
  %17 = load i64, ptr %6, align 8
  %18 = call noundef nonnull align 8 dereferenceable(8) ptr @_ZNSt3__113basic_ostreamIcNS_11char_traitsIcEEE5writeEPKcl(ptr noundef nonnull align 8 dereferenceable(8) %15, ptr noundef %16, i64 noundef %17)
  %19 = getelementptr inbounds %"class.mitsuba::FileStream", ptr %12, i32 0, i32 4
  %20 = call noundef ptr @_ZNKSt3__110unique_ptrINS_13basic_fstreamIcNS_11char_traitsIcEEEENS_14default_deleteIS4_EEEptB8ne190000Ev(ptr noundef nonnull align 8 dereferenceable(8) %19) #18
  %21 = load ptr, ptr %20, align 8
  %22 = getelementptr i8, ptr %21, i64 -24
  %23 = load i64, ptr %22, align 8
  %24 = getelementptr inbounds i8, ptr %20, i64 %23
  %25 = call noundef zeroext i1 @_ZNKSt3__19basic_iosIcNS_11char_traitsIcEEE4goodB8ne190000Ev(ptr noundef nonnull align 8 dereferenceable(148) %24)
  %26 = xor i1 %25, true
  %27 = xor i1 %26, true
  %28 = xor i1 %27, true
  br i1 %28, label %29, label %54

29:                                               ; preds = %3
  %30 = getelementptr inbounds %"class.mitsuba::FileStream", ptr %12, i32 0, i32 4
  %31 = call noundef ptr @_ZNKSt3__110unique_ptrINS_13basic_fstreamIcNS_11char_traitsIcEEEENS_14default_deleteIS4_EEEptB8ne190000Ev(ptr noundef nonnull align 8 dereferenceable(8) %30) #18
  %32 = load ptr, ptr %31, align 8
  %33 = getelementptr i8, ptr %32, i64 -24
  %34 = load i64, ptr %33, align 8
  %35 = getelementptr inbounds i8, ptr %31, i64 %34
  call void @_ZNSt3__19basic_iosIcNS_11char_traitsIcEEE5clearB8ne190000Ej(ptr noundef nonnull align 8 dereferenceable(148) %35, i32 noundef 0)
  br label %36

36:                                               ; preds = %29
  %37 = load ptr, ptr @_ZN7mitsuba10FileStream7m_classE, align 8
  %38 = getelementptr inbounds %"class.mitsuba::FileStream", ptr %12, i32 0, i32 3
  call void @_ZNK7mitsuba10filesystem4path6stringEv(ptr dead_on_unwind writable sret(%"class.std::__1::basic_string") align 8 %8, ptr noundef nonnull align 8 dereferenceable(25) %38)
  %39 = call ptr @__errno_location() #19
  %40 = load i32, ptr %39, align 4
  %41 = call ptr @strerror(i32 noundef %40) #18
  store ptr %41, ptr %9, align 8
  invoke void @_ZN10tinyformat6formatIJNSt3__112basic_stringIcNS1_11char_traitsIcEENS1_9allocatorIcEEEEmPcEEES7_PKcDpRKT_(ptr dead_on_unwind writable sret(%"class.std::__1::basic_string") align 8 %7, ptr noundef @.str.4, ptr noundef nonnull align 8 dereferenceable(24) %8, ptr noundef nonnull align 8 dereferenceable(8) %6, ptr noundef nonnull align 8 dereferenceable(8) %9)
          to label %42 unwind label %44

42:                                               ; preds = %36
  invoke void @_ZN7mitsuba6detail5ThrowENS_8LogLevelEPKNS_5ClassEPKciRKNSt3__112basic_stringIcNS7_11char_traitsIcEENS7_9allocatorIcEEEE(i32 noundef 400, ptr noundef %37, ptr noundef @.str, i32 noundef 71, ptr noundef nonnull align 8 dereferenceable(24) %7) #20
          to label %43 unwind label %48

43:                                               ; preds = %42
  unreachable

44:                                               ; preds = %36
  %45 = landingpad { ptr, i32 }
          cleanup
  %46 = extractvalue { ptr, i32 } %45, 0
  store ptr %46, ptr %10, align 8
  %47 = extractvalue { ptr, i32 } %45, 1
  store i32 %47, ptr %11, align 4
  br label %52

48:                                               ; preds = %42
  %49 = landingpad { ptr, i32 }
          cleanup
  %50 = extractvalue { ptr, i32 } %49, 0
  store ptr %50, ptr %10, align 8
  %51 = extractvalue { ptr, i32 } %49, 1
  store i32 %51, ptr %11, align 4
  call void @_ZNSt3__112basic_stringIcNS_11char_traitsIcEENS_9allocatorIcEEED1Ev(ptr noundef nonnull align 8 dereferenceable(24) %7) #18
  br label %52

52:                                               ; preds = %48, %44
  call void @_ZNSt3__112basic_stringIcNS_11char_traitsIcEENS_9allocatorIcEEED1Ev(ptr noundef nonnull align 8 dereferenceable(24) %8) #18
  br label %55

53:                                               ; No predecessors!
  br label %54

54:                                               ; preds = %53, %3
  ret void

55:                                               ; preds = %52
  %56 = load ptr, ptr %10, align 8
  %57 = load i32, ptr %11, align 4
  %58 = insertvalue { ptr, i32 } poison, ptr %56, 0
  %59 = insertvalue { ptr, i32 } %58, i32 %57, 1
  resume { ptr, i32 } %59
}