; Function Attrs: mustprogress uwtable
define void @_ZN7mitsuba10FileStream5writeEPKvm(ptr noundef nonnull align 8 dereferenceable(64) %0, ptr noundef %1, i64 noundef %2) unnamed_addr #0 align 2 personality ptr @__gxx_personality_v0 {
  %4 = alloca i64, align 8
  %5 = alloca %"class.std::__1::basic_string", align 8
  %6 = alloca %"class.std::__1::basic_string", align 8
  %7 = alloca ptr, align 8
  store i64 %2, ptr %4, align 8
  %8 = getelementptr inbounds i8, ptr %0, i64 56
  %9 = load ptr, ptr %8, align 8
  %10 = getelementptr inbounds i8, ptr %9, i64 16
  %11 = tail call noundef nonnull align 8 dereferenceable(8) ptr @_ZNSt3__113basic_ostreamIcNS_11char_traitsIcEEE5writeEPKcl(ptr noundef nonnull align 8 dereferenceable(8) %10, ptr noundef %1, i64 noundef %2)
  %12 = load ptr, ptr %8, align 8
  %13 = load ptr, ptr %12, align 8
  %14 = getelementptr i8, ptr %13, i64 -24
  %15 = load i64, ptr %14, align 8
  %16 = getelementptr inbounds i8, ptr %12, i64 %15
  %17 = getelementptr inbounds i8, ptr %16, i64 32
  %18 = load i32, ptr %17, align 8
  %19 = icmp eq i32 %18, 0
  br i1 %19, label %33, label %20

20:                                               ; preds = %3
  tail call void @_ZNSt3__18ios_base5clearEj(ptr noundef nonnull align 8 dereferenceable(136) %16, i32 noundef 0)
  %21 = load ptr, ptr @_ZN7mitsuba10FileStream7m_classE, align 8
  %22 = getelementptr inbounds i8, ptr %0, i64 24
  call void @_ZNK7mitsuba10filesystem4path6stringEv(ptr dead_on_unwind nonnull writable sret(%"class.std::__1::basic_string") align 8 %6, ptr noundef nonnull align 8 dereferenceable(25) %22)
  %23 = tail call ptr @__errno_location() #22
  %24 = load i32, ptr %23, align 4
  %25 = call ptr @strerror(i32 noundef %24) #19
  store ptr %25, ptr %7, align 8
  invoke void @_ZN10tinyformat6formatIJNSt3__112basic_stringIcNS1_11char_traitsIcEENS1_9allocatorIcEEEEmPcEEES7_PKcDpRKT_(ptr dead_on_unwind nonnull writable sret(%"class.std::__1::basic_string") align 8 %5, ptr noundef nonnull @.str.4, ptr noundef nonnull align 8 dereferenceable(24) %6, ptr noundef nonnull align 8 dereferenceable(8) %4, ptr noundef nonnull align 8 dereferenceable(8) %7)
          to label %26 unwind label %28

26:                                               ; preds = %20
  invoke void @_ZN7mitsuba6detail5ThrowENS_8LogLevelEPKNS_5ClassEPKciRKNSt3__112basic_stringIcNS7_11char_traitsIcEENS7_9allocatorIcEEEE(i32 noundef 400, ptr noundef %21, ptr noundef nonnull @.str, i32 noundef 71, ptr noundef nonnull align 8 dereferenceable(24) %5) #21
          to label %27 unwind label %30

27:                                               ; preds = %26
  unreachable

28:                                               ; preds = %20
  %29 = landingpad { ptr, i32 }
          cleanup
  br label %32

30:                                               ; preds = %26
  %31 = landingpad { ptr, i32 }
          cleanup
  call void @_ZNSt3__112basic_stringIcNS_11char_traitsIcEENS_9allocatorIcEEED1Ev(ptr noundef nonnull align 8 dereferenceable(24) %5) #19
  br label %32

32:                                               ; preds = %30, %28
  %.pn = phi { ptr, i32 } [ %31, %30 ], [ %29, %28 ]
  call void @_ZNSt3__112basic_stringIcNS_11char_traitsIcEENS_9allocatorIcEEED1Ev(ptr noundef nonnull align 8 dereferenceable(24) %6) #19
  resume { ptr, i32 } %.pn

33:                                               ; preds = %3
  ret void
}